target datalayout = "e-m:e-p270:32:32-p271:32:32-p272:64:64-i64:64-f80:128-n8:16:32:64-S128"
target triple = "x86_64-pc-linux-gnu"

%struct.student = type { [20 x i8], i32, i32, i8, i8, i32, i32 }

@.str = private unnamed_addr constant [3 x i8] c"%d\00", align 1
@.str.1 = private unnamed_addr constant [15 x i8] c"%s%d%d %c %c%d\00", align 1
@.str.2 = private unnamed_addr constant [9 x i8] c"%s\0A%d\0A%d\00", align 1

; Function Attrs: noinline nounwind uwtable
define dso_local void @main() #0 {
  %1 = alloca i32, align 4
  %2 = alloca i32, align 4
  %3 = alloca i32, align 4
  %4 = alloca [100 x %struct.student], align 16
  %5 = alloca %struct.student, align 4
  %6 = call i32 (i8*, ...) @__isoc99_scanf(i8* getelementptr inbounds ([3 x i8], [3 x i8]* @.str, i64 0, i64 0), i32* %1)
  store i32 0, i32* %2, align 4
  br label %7

7:                                                ; preds = %162, %0
  %8 = load i32, i32* %2, align 4
  %9 = load i32, i32* %1, align 4
  %10 = icmp slt i32 %8, %9
  br i1 %10, label %11, label %165

11:                                               ; preds = %7
  %12 = load i32, i32* %2, align 4
  %13 = sext i32 %12 to i64
  %14 = getelementptr inbounds [100 x %struct.student], [100 x %struct.student]* %4, i64 0, i64 %13
  %15 = getelementptr inbounds %struct.student, %struct.student* %14, i32 0, i32 6
  store i32 0, i32* %15, align 4
  %16 = load i32, i32* %2, align 4
  %17 = sext i32 %16 to i64
  %18 = getelementptr inbounds [100 x %struct.student], [100 x %struct.student]* %4, i64 0, i64 %17
  %19 = getelementptr inbounds %struct.student, %struct.student* %18, i32 0, i32 0
  %20 = getelementptr inbounds [20 x i8], [20 x i8]* %19, i64 0, i64 0
  %21 = load i32, i32* %2, align 4
  %22 = sext i32 %21 to i64
  %23 = getelementptr inbounds [100 x %struct.student], [100 x %struct.student]* %4, i64 0, i64 %22
  %24 = getelementptr inbounds %struct.student, %struct.student* %23, i32 0, i32 1
  %25 = load i32, i32* %2, align 4
  %26 = sext i32 %25 to i64
  %27 = getelementptr inbounds [100 x %struct.student], [100 x %struct.student]* %4, i64 0, i64 %26
  %28 = getelementptr inbounds %struct.student, %struct.student* %27, i32 0, i32 2
  %29 = load i32, i32* %2, align 4
  %30 = sext i32 %29 to i64
  %31 = getelementptr inbounds [100 x %struct.student], [100 x %struct.student]* %4, i64 0, i64 %30
  %32 = getelementptr inbounds %struct.student, %struct.student* %31, i32 0, i32 3
  %33 = load i32, i32* %2, align 4
  %34 = sext i32 %33 to i64
  %35 = getelementptr inbounds [100 x %struct.student], [100 x %struct.student]* %4, i64 0, i64 %34
  %36 = getelementptr inbounds %struct.student, %struct.student* %35, i32 0, i32 4
  %37 = load i32, i32* %2, align 4
  %38 = sext i32 %37 to i64
  %39 = getelementptr inbounds [100 x %struct.student], [100 x %struct.student]* %4, i64 0, i64 %38
  %40 = getelementptr inbounds %struct.student, %struct.student* %39, i32 0, i32 5
  %41 = call i32 (i8*, ...) @__isoc99_scanf(i8* getelementptr inbounds ([15 x i8], [15 x i8]* @.str.1, i64 0, i64 0), i8* %20, i32* %24, i32* %28, i8* %32, i8* %36, i32* %40)
  %42 = load i32, i32* %2, align 4
  %43 = sext i32 %42 to i64
  %44 = getelementptr inbounds [100 x %struct.student], [100 x %struct.student]* %4, i64 0, i64 %43
  %45 = getelementptr inbounds %struct.student, %struct.student* %44, i32 0, i32 1
  %46 = load i32, i32* %45, align 4
  %47 = icmp sgt i32 %46, 80
  br i1 %47, label %48, label %66

48:                                               ; preds = %11
  %49 = load i32, i32* %2, align 4
  %50 = sext i32 %49 to i64
  %51 = getelementptr inbounds [100 x %struct.student], [100 x %struct.student]* %4, i64 0, i64 %50
  %52 = getelementptr inbounds %struct.student, %struct.student* %51, i32 0, i32 5
  %53 = load i32, i32* %52, align 8
  %54 = icmp sge i32 %53, 1
  br i1 %54, label %55, label %66

55:                                               ; preds = %48
  %56 = load i32, i32* %2, align 4
  %57 = sext i32 %56 to i64
  %58 = getelementptr inbounds [100 x %struct.student], [100 x %struct.student]* %4, i64 0, i64 %57
  %59 = getelementptr inbounds %struct.student, %struct.student* %58, i32 0, i32 6
  %60 = load i32, i32* %59, align 4
  %61 = add nsw i32 %60, 8000
  %62 = load i32, i32* %2, align 4
  %63 = sext i32 %62 to i64
  %64 = getelementptr inbounds [100 x %struct.student], [100 x %struct.student]* %4, i64 0, i64 %63
  %65 = getelementptr inbounds %struct.student, %struct.student* %64, i32 0, i32 6
  store i32 %61, i32* %65, align 4
  br label %66

66:                                               ; preds = %55, %48, %11
  %67 = load i32, i32* %2, align 4
  %68 = sext i32 %67 to i64
  %69 = getelementptr inbounds [100 x %struct.student], [100 x %struct.student]* %4, i64 0, i64 %68
  %70 = getelementptr inbounds %struct.student, %struct.student* %69, i32 0, i32 1
  %71 = load i32, i32* %70, align 4
  %72 = icmp sgt i32 %71, 85
  br i1 %72, label %73, label %91

73:                                               ; preds = %66
  %74 = load i32, i32* %2, align 4
  %75 = sext i32 %74 to i64
  %76 = getelementptr inbounds [100 x %struct.student], [100 x %struct.student]* %4, i64 0, i64 %75
  %77 = getelementptr inbounds %struct.student, %struct.student* %76, i32 0, i32 2
  %78 = load i32, i32* %77, align 8
  %79 = icmp sgt i32 %78, 80
  br i1 %79, label %80, label %91

80:                                               ; preds = %73
  %81 = load i32, i32* %2, align 4
  %82 = sext i32 %81 to i64
  %83 = getelementptr inbounds [100 x %struct.student], [100 x %struct.student]* %4, i64 0, i64 %82
  %84 = getelementptr inbounds %struct.student, %struct.student* %83, i32 0, i32 6
  %85 = load i32, i32* %84, align 4
  %86 = add nsw i32 %85, 4000
  %87 = load i32, i32* %2, align 4
  %88 = sext i32 %87 to i64
  %89 = getelementptr inbounds [100 x %struct.student], [100 x %struct.student]* %4, i64 0, i64 %88
  %90 = getelementptr inbounds %struct.student, %struct.student* %89, i32 0, i32 6
  store i32 %86, i32* %90, align 4
  br label %91

91:                                               ; preds = %80, %73, %66
  %92 = load i32, i32* %2, align 4
  %93 = sext i32 %92 to i64
  %94 = getelementptr inbounds [100 x %struct.student], [100 x %struct.student]* %4, i64 0, i64 %93
  %95 = getelementptr inbounds %struct.student, %struct.student* %94, i32 0, i32 1
  %96 = load i32, i32* %95, align 4
  %97 = icmp sgt i32 %96, 90
  br i1 %97, label %98, label %109

98:                                               ; preds = %91
  %99 = load i32, i32* %2, align 4
  %100 = sext i32 %99 to i64
  %101 = getelementptr inbounds [100 x %struct.student], [100 x %struct.student]* %4, i64 0, i64 %100
  %102 = getelementptr inbounds %struct.student, %struct.student* %101, i32 0, i32 6
  %103 = load i32, i32* %102, align 4
  %104 = add nsw i32 %103, 2000
  %105 = load i32, i32* %2, align 4
  %106 = sext i32 %105 to i64
  %107 = getelementptr inbounds [100 x %struct.student], [100 x %struct.student]* %4, i64 0, i64 %106
  %108 = getelementptr inbounds %struct.student, %struct.student* %107, i32 0, i32 6
  store i32 %104, i32* %108, align 4
  br label %109

109:                                              ; preds = %98, %91
  %110 = load i32, i32* %2, align 4
  %111 = sext i32 %110 to i64
  %112 = getelementptr inbounds [100 x %struct.student], [100 x %struct.student]* %4, i64 0, i64 %111
  %113 = getelementptr inbounds %struct.student, %struct.student* %112, i32 0, i32 1
  %114 = load i32, i32* %113, align 4
  %115 = icmp sgt i32 %114, 85
  br i1 %115, label %116, label %135

116:                                              ; preds = %109
  %117 = load i32, i32* %2, align 4
  %118 = sext i32 %117 to i64
  %119 = getelementptr inbounds [100 x %struct.student], [100 x %struct.student]* %4, i64 0, i64 %118
  %120 = getelementptr inbounds %struct.student, %struct.student* %119, i32 0, i32 4
  %121 = load i8, i8* %120, align 1
  %122 = sext i8 %121 to i32
  %123 = icmp eq i32 %122, 89
  br i1 %123, label %124, label %135

124:                                              ; preds = %116
  %125 = load i32, i32* %2, align 4
  %126 = sext i32 %125 to i64
  %127 = getelementptr inbounds [100 x %struct.student], [100 x %struct.student]* %4, i64 0, i64 %126
  %128 = getelementptr inbounds %struct.student, %struct.student* %127, i32 0, i32 6
  %129 = load i32, i32* %128, align 4
  %130 = add nsw i32 %129, 1000
  %131 = load i32, i32* %2, align 4
  %132 = sext i32 %131 to i64
  %133 = getelementptr inbounds [100 x %struct.student], [100 x %struct.student]* %4, i64 0, i64 %132
  %134 = getelementptr inbounds %struct.student, %struct.student* %133, i32 0, i32 6
  store i32 %130, i32* %134, align 4
  br label %135

135:                                              ; preds = %124, %116, %109
  %136 = load i32, i32* %2, align 4
  %137 = sext i32 %136 to i64
  %138 = getelementptr inbounds [100 x %struct.student], [100 x %struct.student]* %4, i64 0, i64 %137
  %139 = getelementptr inbounds %struct.student, %struct.student* %138, i32 0, i32 2
  %140 = load i32, i32* %139, align 8
  %141 = icmp sgt i32 %140, 80
  br i1 %141, label %142, label %161

142:                                              ; preds = %135
  %143 = load i32, i32* %2, align 4
  %144 = sext i32 %143 to i64
  %145 = getelementptr inbounds [100 x %struct.student], [100 x %struct.student]* %4, i64 0, i64 %144
  %146 = getelementptr inbounds %struct.student, %struct.student* %145, i32 0, i32 3
  %147 = load i8, i8* %146, align 4
  %148 = sext i8 %147 to i32
  %149 = icmp eq i32 %148, 89
  br i1 %149, label %150, label %161

150:                                              ; preds = %142
  %151 = load i32, i32* %2, align 4
  %152 = sext i32 %151 to i64
  %153 = getelementptr inbounds [100 x %struct.student], [100 x %struct.student]* %4, i64 0, i64 %152
  %154 = getelementptr inbounds %struct.student, %struct.student* %153, i32 0, i32 6
  %155 = load i32, i32* %154, align 4
  %156 = add nsw i32 %155, 850
  %157 = load i32, i32* %2, align 4
  %158 = sext i32 %157 to i64
  %159 = getelementptr inbounds [100 x %struct.student], [100 x %struct.student]* %4, i64 0, i64 %158
  %160 = getelementptr inbounds %struct.student, %struct.student* %159, i32 0, i32 6
  store i32 %156, i32* %160, align 4
  br label %161

161:                                              ; preds = %150, %142, %135
  br label %162

162:                                              ; preds = %161
  %163 = load i32, i32* %2, align 4
  %164 = add nsw i32 %163, 1
  store i32 %164, i32* %2, align 4
  br label %7

165:                                              ; preds = %7
  store i32 0, i32* %2, align 4
  br label %166

166:                                              ; preds = %218, %165
  %167 = load i32, i32* %2, align 4
  %168 = load i32, i32* %1, align 4
  %169 = sub nsw i32 %168, 1
  %170 = icmp slt i32 %167, %169
  br i1 %170, label %171, label %221

171:                                              ; preds = %166
  store i32 0, i32* %3, align 4
  br label %172

172:                                              ; preds = %214, %171
  %173 = load i32, i32* %3, align 4
  %174 = load i32, i32* %1, align 4
  %175 = load i32, i32* %2, align 4
  %176 = sub nsw i32 %174, %175
  %177 = sub nsw i32 %176, 1
  %178 = icmp slt i32 %173, %177
  br i1 %178, label %179, label %217

179:                                              ; preds = %172
  %180 = load i32, i32* %3, align 4
  %181 = sext i32 %180 to i64
  %182 = getelementptr inbounds [100 x %struct.student], [100 x %struct.student]* %4, i64 0, i64 %181
  %183 = getelementptr inbounds %struct.student, %struct.student* %182, i32 0, i32 6
  %184 = load i32, i32* %183, align 4
  %185 = load i32, i32* %3, align 4
  %186 = add nsw i32 %185, 1
  %187 = sext i32 %186 to i64
  %188 = getelementptr inbounds [100 x %struct.student], [100 x %struct.student]* %4, i64 0, i64 %187
  %189 = getelementptr inbounds %struct.student, %struct.student* %188, i32 0, i32 6
  %190 = load i32, i32* %189, align 4
  %191 = icmp slt i32 %184, %190
  br i1 %191, label %192, label %213

192:                                              ; preds = %179
  %193 = load i32, i32* %3, align 4
  %194 = sext i32 %193 to i64
  %195 = getelementptr inbounds [100 x %struct.student], [100 x %struct.student]* %4, i64 0, i64 %194
  %196 = bitcast %struct.student* %5 to i8*
  %197 = bitcast %struct.student* %195 to i8*
  call void @llvm.memcpy.p0i8.p0i8.i64(i8* align 4 %196, i8* align 8 %197, i64 40, i1 false)
  %198 = load i32, i32* %3, align 4
  %199 = sext i32 %198 to i64
  %200 = getelementptr inbounds [100 x %struct.student], [100 x %struct.student]* %4, i64 0, i64 %199
  %201 = load i32, i32* %3, align 4
  %202 = add nsw i32 %201, 1
  %203 = sext i32 %202 to i64
  %204 = getelementptr inbounds [100 x %struct.student], [100 x %struct.student]* %4, i64 0, i64 %203
  %205 = bitcast %struct.student* %200 to i8*
  %206 = bitcast %struct.student* %204 to i8*
  call void @llvm.memcpy.p0i8.p0i8.i64(i8* align 8 %205, i8* align 8 %206, i64 40, i1 false)
  %207 = load i32, i32* %3, align 4
  %208 = add nsw i32 %207, 1
  %209 = sext i32 %208 to i64
  %210 = getelementptr inbounds [100 x %struct.student], [100 x %struct.student]* %4, i64 0, i64 %209
  %211 = bitcast %struct.student* %210 to i8*
  %212 = bitcast %struct.student* %5 to i8*
  call void @llvm.memcpy.p0i8.p0i8.i64(i8* align 8 %211, i8* align 4 %212, i64 40, i1 false)
  br label %213

213:                                              ; preds = %192, %179
  br label %214

214:                                              ; preds = %213
  %215 = load i32, i32* %3, align 4
  %216 = add nsw i32 %215, 1
  store i32 %216, i32* %3, align 4
  br label %172

217:                                              ; preds = %172
  br label %218

218:                                              ; preds = %217
  %219 = load i32, i32* %2, align 4
  %220 = add nsw i32 %219, 1
  store i32 %220, i32* %2, align 4
  br label %166

221:                                              ; preds = %166
  store i32 0, i32* %3, align 4
  store i32 0, i32* %2, align 4
  br label %222

222:                                              ; preds = %234, %221
  %223 = load i32, i32* %2, align 4
  %224 = load i32, i32* %1, align 4
  %225 = icmp slt i32 %223, %224
  br i1 %225, label %226, label %237

226:                                              ; preds = %222
  %227 = load i32, i32* %3, align 4
  %228 = load i32, i32* %2, align 4
  %229 = sext i32 %228 to i64
  %230 = getelementptr inbounds [100 x %struct.student], [100 x %struct.student]* %4, i64 0, i64 %229
  %231 = getelementptr inbounds %struct.student, %struct.student* %230, i32 0, i32 6
  %232 = load i32, i32* %231, align 4
  %233 = add nsw i32 %227, %232
  store i32 %233, i32* %3, align 4
  br label %234

234:                                              ; preds = %226
  %235 = load i32, i32* %2, align 4
  %236 = add nsw i32 %235, 1
  store i32 %236, i32* %2, align 4
  br label %222

237:                                              ; preds = %222
  %238 = getelementptr inbounds [100 x %struct.student], [100 x %struct.student]* %4, i64 0, i64 0
  %239 = getelementptr inbounds %struct.student, %struct.student* %238, i32 0, i32 0
  %240 = getelementptr inbounds [20 x i8], [20 x i8]* %239, i64 0, i64 0
  %241 = getelementptr inbounds [100 x %struct.student], [100 x %struct.student]* %4, i64 0, i64 0
  %242 = getelementptr inbounds %struct.student, %struct.student* %241, i32 0, i32 6
  %243 = load i32, i32* %242, align 4
  %244 = load i32, i32* %3, align 4
  %245 = call i32 (i8*, ...) @printf(i8* getelementptr inbounds ([9 x i8], [9 x i8]* @.str.2, i64 0, i64 0), i8* %240, i32 %243, i32 %244)
  ret void
}